; Function Attrs: mustprogress nofree norecurse nosync nounwind willreturn memory(argmem: read) uwtable
define hidden noundef range(i64 -1152921504606846976, 1152921504606846976) i64 @_ZNK4cvc58internal6theory11quantifiers15FirstOrderModel25getNumAssertedQuantifiersEv(ptr noundef nonnull readonly align 8 captures(none) dereferenceable(664) %0) local_unnamed_addr #8 align 2 {
  %2 = getelementptr inbounds nuw i8, ptr %0, i64 272
  %3 = getelementptr inbounds nuw i8, ptr %0, i64 280
  %4 = load ptr, ptr %3, align 8, !tbaa !80
  %5 = load ptr, ptr %2, align 8, !tbaa !79
  %6 = ptrtoint ptr %4 to i64
  %7 = ptrtoint ptr %5 to i64
  %8 = sub i64 %6, %7
  %9 = ashr exact i64 %8, 3
  ret i64 %9
}